target datalayout = "e-m:e-p270:32:32-p271:32:32-p272:64:64-i64:64-i128:128-f80:128-n8:16:32:64-S128"
target triple = "x86_64-pc-linux-gnu"

@.str = private unnamed_addr constant [2 x i8] c"p\00", align 1
@.str.1 = private unnamed_addr constant [11 x i8] c"listpack.c\00", align 1
@.str.30 = private unnamed_addr constant [32 x i8] c"lpValidateNext(lp, &p, lpbytes)\00", align 1

; Function Attrs: inlinehint nounwind uwtable
define internal void @lpAssertValidEntry(ptr noundef %0, i64 noundef %1, ptr noundef %2) #6 {
  %4 = alloca ptr, align 8
  %5 = alloca i64, align 8
  %6 = alloca ptr, align 8
  store ptr %0, ptr %4, align 8, !tbaa !5
  store i64 %1, ptr %5, align 8, !tbaa !10
  store ptr %2, ptr %6, align 8, !tbaa !5
  %7 = load ptr, ptr %4, align 8, !tbaa !5
  %8 = load i64, ptr %5, align 8, !tbaa !10
  %9 = call i32 @lpValidateNext(ptr noundef %7, ptr noundef %6, i64 noundef %8)
  %10 = icmp ne i32 %9, 0
  %11 = xor i1 %10, true
  %12 = xor i1 %11, true
  %13 = zext i1 %12 to i32
  %14 = sext i32 %13 to i64
  %15 = call i64 @llvm.expect.i64(i64 %14, i64 1)
  %16 = icmp ne i64 %15, 0
  br i1 %16, label %17, label %18

17:                                               ; preds = %3
  br label %20

18:                                               ; preds = %3
  call void @_serverAssert(ptr noundef @.str.30, ptr noundef @.str.1, i32 noundef 1664)
  call void @abort() #11
  unreachable

19:                                               ; No predecessors!
  br label %20

20:                                               ; preds = %19, %17
  ret void
}

; Function Attrs: nounwind uwtable
define dso_local i64 @lpBytes(ptr noundef %0) #0 {
  %2 = alloca ptr, align 8
  store ptr %0, ptr %2, align 8, !tbaa !5
  %3 = load ptr, ptr %2, align 8, !tbaa !5
  %4 = getelementptr inbounds i8, ptr %3, i64 0
  %5 = load i8, ptr %4, align 1, !tbaa !12
  %6 = zext i8 %5 to i32
  %7 = shl i32 %6, 0
  %8 = load ptr, ptr %2, align 8, !tbaa !5
  %9 = getelementptr inbounds i8, ptr %8, i64 1
  %10 = load i8, ptr %9, align 1, !tbaa !12
  %11 = zext i8 %10 to i32
  %12 = shl i32 %11, 8
  %13 = or i32 %7, %12
  %14 = load ptr, ptr %2, align 8, !tbaa !5
  %15 = getelementptr inbounds i8, ptr %14, i64 2
  %16 = load i8, ptr %15, align 1, !tbaa !12
  %17 = zext i8 %16 to i32
  %18 = shl i32 %17, 16
  %19 = or i32 %13, %18
  %20 = load ptr, ptr %2, align 8, !tbaa !5
  %21 = getelementptr inbounds i8, ptr %20, i64 3
  %22 = load i8, ptr %21, align 1, !tbaa !12
  %23 = zext i8 %22 to i32
  %24 = shl i32 %23, 24
  %25 = or i32 %19, %24
  %26 = zext i32 %25 to i64
  ret i64 %26
}

; Function Attrs: inlinehint nounwind uwtable
define internal i64 @lpEncodeBacklenBytes(i64 noundef %0) #6 {
  %2 = alloca i64, align 8
  %3 = alloca i64, align 8
  store i64 %0, ptr %3, align 8, !tbaa !10
  %4 = load i64, ptr %3, align 8, !tbaa !10
  %5 = icmp ule i64 %4, 127
  br i1 %5, label %6, label %7

6:                                                ; preds = %1
  store i64 1, ptr %2, align 8
  br label %20

7:                                                ; preds = %1
  %8 = load i64, ptr %3, align 8, !tbaa !10
  %9 = icmp ult i64 %8, 16383
  br i1 %9, label %10, label %11

10:                                               ; preds = %7
  store i64 2, ptr %2, align 8
  br label %20

11:                                               ; preds = %7
  %12 = load i64, ptr %3, align 8, !tbaa !10
  %13 = icmp ult i64 %12, 2097151
  br i1 %13, label %14, label %15

14:                                               ; preds = %11
  store i64 3, ptr %2, align 8
  br label %20

15:                                               ; preds = %11
  %16 = load i64, ptr %3, align 8, !tbaa !10
  %17 = icmp ult i64 %16, 268435455
  br i1 %17, label %18, label %19

18:                                               ; preds = %15
  store i64 4, ptr %2, align 8
  br label %20

19:                                               ; preds = %15
  store i64 5, ptr %2, align 8
  br label %20

20:                                               ; preds = %19, %18, %14, %10, %6
  %21 = load i64, ptr %2, align 8
  ret i64 %21
}

; Function Attrs: inlinehint nounwind uwtable
define internal i64 @lpDecodeBacklen(ptr noundef %0) #6 {
  %2 = alloca i64, align 8
  %3 = alloca ptr, align 8
  %4 = alloca i64, align 8
  %5 = alloca i64, align 8
  %6 = alloca i32, align 4
  store ptr %0, ptr %3, align 8, !tbaa !5
  call void @llvm.lifetime.start.p0(i64 8, ptr %4) #10
  store i64 0, ptr %4, align 8, !tbaa !10
  call void @llvm.lifetime.start.p0(i64 8, ptr %5) #10
  store i64 0, ptr %5, align 8, !tbaa !10
  br label %7

7:                                                ; preds = %34, %1
  %8 = load ptr, ptr %3, align 8, !tbaa !5
  %9 = getelementptr inbounds i8, ptr %8, i64 0
  %10 = load i8, ptr %9, align 1, !tbaa !12
  %11 = zext i8 %10 to i32
  %12 = and i32 %11, 127
  %13 = sext i32 %12 to i64
  %14 = load i64, ptr %5, align 8, !tbaa !10
  %15 = shl i64 %13, %14
  %16 = load i64, ptr %4, align 8, !tbaa !10
  %17 = or i64 %16, %15
  store i64 %17, ptr %4, align 8, !tbaa !10
  %18 = load ptr, ptr %3, align 8, !tbaa !5
  %19 = getelementptr inbounds i8, ptr %18, i64 0
  %20 = load i8, ptr %19, align 1, !tbaa !12
  %21 = zext i8 %20 to i32
  %22 = and i32 %21, 128
  %23 = icmp ne i32 %22, 0
  br i1 %23, label %25, label %24

24:                                               ; preds = %7
  br label %35

25:                                               ; preds = %7
  %26 = load i64, ptr %5, align 8, !tbaa !10
  %27 = add i64 %26, 7
  store i64 %27, ptr %5, align 8, !tbaa !10
  %28 = load ptr, ptr %3, align 8, !tbaa !5
  %29 = getelementptr inbounds i8, ptr %28, i32 -1
  store ptr %29, ptr %3, align 8, !tbaa !5
  %30 = load i64, ptr %5, align 8, !tbaa !10
  %31 = icmp ugt i64 %30, 28
  br i1 %31, label %32, label %33

32:                                               ; preds = %25
  store i64 -1, ptr %2, align 8
  store i32 1, ptr %6, align 4
  br label %37

33:                                               ; preds = %25
  br label %34

34:                                               ; preds = %33
  br i1 true, label %7, label %35

35:                                               ; preds = %34, %24
  %36 = load i64, ptr %4, align 8, !tbaa !10
  store i64 %36, ptr %2, align 8
  store i32 1, ptr %6, align 4
  br label %37

37:                                               ; preds = %35, %32
  call void @llvm.lifetime.end.p0(i64 8, ptr %5) #10
  call void @llvm.lifetime.end.p0(i64 8, ptr %4) #10
  %38 = load i64, ptr %2, align 8
  ret i64 %38
}

; Function Attrs: nounwind uwtable
define dso_local ptr @lpPrev(ptr noundef %0, ptr noundef %1) #0 {
  %3 = alloca ptr, align 8
  %4 = alloca ptr, align 8
  %5 = alloca ptr, align 8
  %6 = alloca i64, align 8
  store ptr %0, ptr %4, align 8, !tbaa !5
  store ptr %1, ptr %5, align 8, !tbaa !5
  %7 = load ptr, ptr %5, align 8, !tbaa !5
  %8 = icmp ne ptr %7, null
  %9 = xor i1 %8, true
  %10 = xor i1 %9, true
  %11 = zext i1 %10 to i32
  %12 = sext i32 %11 to i64
  %13 = call i64 @llvm.expect.i64(i64 %12, i64 1)
  %14 = icmp ne i64 %13, 0
  br i1 %14, label %15, label %16

15:                                               ; preds = %2
  br label %18

16:                                               ; preds = %2
  call void @_serverAssert(ptr noundef @.str, ptr noundef @.str.1, i32 noundef 505)
  call void @abort() #11
  unreachable

17:                                               ; No predecessors!
  br label %18

18:                                               ; preds = %17, %15
  %19 = load ptr, ptr %5, align 8, !tbaa !5
  %20 = load ptr, ptr %4, align 8, !tbaa !5
  %21 = ptrtoint ptr %19 to i64
  %22 = ptrtoint ptr %20 to i64
  %23 = sub i64 %21, %22
  %24 = icmp eq i64 %23, 6
  br i1 %24, label %25, label %26

25:                                               ; preds = %18
  store ptr null, ptr %3, align 8
  br label %45

26:                                               ; preds = %18
  %27 = load ptr, ptr %5, align 8, !tbaa !5
  %28 = getelementptr inbounds i8, ptr %27, i32 -1
  store ptr %28, ptr %5, align 8, !tbaa !5
  call void @llvm.lifetime.start.p0(i64 8, ptr %6) #10
  %29 = load ptr, ptr %5, align 8, !tbaa !5
  %30 = call i64 @lpDecodeBacklen(ptr noundef %29)
  store i64 %30, ptr %6, align 8, !tbaa !10
  %31 = load i64, ptr %6, align 8, !tbaa !10
  %32 = call i64 @lpEncodeBacklenBytes(i64 noundef %31)
  %33 = load i64, ptr %6, align 8, !tbaa !10
  %34 = add i64 %33, %32
  store i64 %34, ptr %6, align 8, !tbaa !10
  %35 = load i64, ptr %6, align 8, !tbaa !10
  %36 = sub i64 %35, 1
  %37 = load ptr, ptr %5, align 8, !tbaa !5
  %38 = sub i64 0, %36
  %39 = getelementptr inbounds i8, ptr %37, i64 %38
  store ptr %39, ptr %5, align 8, !tbaa !5
  %40 = load ptr, ptr %4, align 8, !tbaa !5
  %41 = load ptr, ptr %4, align 8, !tbaa !5
  %42 = call i64 @lpBytes(ptr noundef %41)
  %43 = load ptr, ptr %5, align 8, !tbaa !5
  call void @lpAssertValidEntry(ptr noundef %40, i64 noundef %42, ptr noundef %43)
  %44 = load ptr, ptr %5, align 8, !tbaa !5
  store ptr %44, ptr %3, align 8
  call void @llvm.lifetime.end.p0(i64 8, ptr %6) #10
  br label %45

45:                                               ; preds = %26, %25
  %46 = load ptr, ptr %3, align 8
  ret ptr %46
}

; Function Attrs: nounwind uwtable
define dso_local ptr @lpLast(ptr noundef %0) #0 {
  %2 = alloca ptr, align 8
  %3 = alloca ptr, align 8
  store ptr %0, ptr %2, align 8, !tbaa !5
  call void @llvm.lifetime.start.p0(i64 8, ptr %3) #10
  %4 = load ptr, ptr %2, align 8, !tbaa !5
  %5 = load ptr, ptr %2, align 8, !tbaa !5
  %6 = getelementptr inbounds i8, ptr %5, i64 0
  %7 = load i8, ptr %6, align 1, !tbaa !12
  %8 = zext i8 %7 to i32
  %9 = shl i32 %8, 0
  %10 = load ptr, ptr %2, align 8, !tbaa !5
  %11 = getelementptr inbounds i8, ptr %10, i64 1
  %12 = load i8, ptr %11, align 1, !tbaa !12
  %13 = zext i8 %12 to i32
  %14 = shl i32 %13, 8
  %15 = or i32 %9, %14
  %16 = load ptr, ptr %2, align 8, !tbaa !5
  %17 = getelementptr inbounds i8, ptr %16, i64 2
  %18 = load i8, ptr %17, align 1, !tbaa !12
  %19 = zext i8 %18 to i32
  %20 = shl i32 %19, 16
  %21 = or i32 %15, %20
  %22 = load ptr, ptr %2, align 8, !tbaa !5
  %23 = getelementptr inbounds i8, ptr %22, i64 3
  %24 = load i8, ptr %23, align 1, !tbaa !12
  %25 = zext i8 %24 to i32
  %26 = shl i32 %25, 24
  %27 = or i32 %21, %26
  %28 = zext i32 %27 to i64
  %29 = getelementptr inbounds nuw i8, ptr %4, i64 %28
  %30 = getelementptr inbounds i8, ptr %29, i64 -1
  store ptr %30, ptr %3, align 8, !tbaa !5
  %31 = load ptr, ptr %2, align 8, !tbaa !5
  %32 = load ptr, ptr %3, align 8, !tbaa !5
  %33 = call ptr @lpPrev(ptr noundef %31, ptr noundef %32)
  call void @llvm.lifetime.end.p0(i64 8, ptr %3) #10
  ret ptr %33
}