; Function Attrs: nounwind uwtable
define dso_local ptr @lpLast(ptr noundef %0) local_unnamed_addr #3 {
  %2 = alloca ptr, align 8
  %3 = load i32, ptr %0, align 1
  %4 = zext i32 %3 to i64
  %5 = getelementptr inbounds nuw i8, ptr %0, i64 %4
  %6 = getelementptr inbounds i8, ptr %5, i64 -1
  %7 = ptrtoint ptr %6 to i64
  %8 = ptrtoint ptr %0 to i64
  %9 = sub i64 %7, %8
  %10 = icmp eq i64 %9, 6
  br i1 %10, label %lpPrev.exit, label %.preheader

.preheader:                                       ; preds = %1, %16
  %.pn.i = phi ptr [ %.09.i.i, %16 ], [ %6, %1 ]
  %.08.i.i = phi i64 [ %15, %16 ], [ 0, %1 ]
  %.0.i.i = phi i64 [ %17, %16 ], [ 0, %1 ]
  %.09.i.i = getelementptr inbounds i8, ptr %.pn.i, i64 -1
  %11 = load i8, ptr %.09.i.i, align 1, !tbaa !5
  %12 = and i8 %11, 127
  %13 = zext nneg i8 %12 to i64
  %14 = shl nuw nsw i64 %13, %.0.i.i
  %.fr28.i = freeze i64 %14
  %15 = or i64 %.fr28.i, %.08.i.i
  %.not.i.i = icmp sgt i8 %11, -1
  br i1 %.not.i.i, label %lpDecodeBacklen.exit.i, label %16

16:                                               ; preds = %.preheader
  %17 = add nuw nsw i64 %.0.i.i, 7
  %18 = icmp samesign ugt i64 %.0.i.i, 21
  br i1 %18, label %lpEncodeBacklenBytes.exit.i, label %.preheader

lpDecodeBacklen.exit.i:                           ; preds = %.preheader
  %19 = icmp ult i64 %15, 128
  br i1 %19, label %lpEncodeBacklenBytes.exit.i, label %20

20:                                               ; preds = %lpDecodeBacklen.exit.i
  %21 = icmp ult i64 %15, 16383
  br i1 %21, label %lpEncodeBacklenBytes.exit.i, label %22

22:                                               ; preds = %20
  %23 = icmp ult i64 %15, 2097151
  br i1 %23, label %lpEncodeBacklenBytes.exit.i, label %24

24:                                               ; preds = %22
  %25 = icmp ult i64 %15, 268435455
  %spec.select.neg.i = select i1 %25, i64 -4, i64 -5
  br label %lpEncodeBacklenBytes.exit.i

lpEncodeBacklenBytes.exit.i:                      ; preds = %16, %24, %22, %20, %lpDecodeBacklen.exit.i
  %.010.i18.i = phi i64 [ %15, %lpDecodeBacklen.exit.i ], [ %15, %20 ], [ %15, %22 ], [ %15, %24 ], [ -1, %16 ]
  %.0.i14.neg30.i = phi i64 [ -1, %lpDecodeBacklen.exit.i ], [ -2, %20 ], [ -3, %22 ], [ %spec.select.neg.i, %24 ], [ -5, %16 ]
  %reass.sub.i = sub i64 %.0.i14.neg30.i, %.010.i18.i
  %26 = getelementptr i8, ptr %6, i64 %reass.sub.i
  call void @llvm.lifetime.start.p0(i64 8, ptr nonnull %2)
  store ptr %26, ptr %2, align 8, !tbaa !13
  %27 = call i32 @lpValidateNext(ptr noundef nonnull %0, ptr noundef nonnull %2, i64 noundef %4)
  %.not.i15.i = icmp eq i32 %27, 0
  br i1 %.not.i15.i, label %28, label %lpAssertValidEntry.exit.i, !prof !12

28:                                               ; preds = %lpEncodeBacklenBytes.exit.i
  tail call void @_serverAssert(ptr noundef nonnull @.str.30, ptr noundef nonnull @.str.1, i32 noundef 1664) #20
  tail call void @abort() #21
  unreachable

lpAssertValidEntry.exit.i:                        ; preds = %lpEncodeBacklenBytes.exit.i
  call void @llvm.lifetime.end.p0(i64 8, ptr nonnull %2)
  br label %lpPrev.exit

lpPrev.exit:                                      ; preds = %1, %lpAssertValidEntry.exit.i
  %.0.i = phi ptr [ %26, %lpAssertValidEntry.exit.i ], [ null, %1 ]
  ret ptr %.0.i
}